; Function Attrs: nounwind uwtable
define range(i32 -1, 1) i32 @H5Eset_current_stack(i64 noundef %0) local_unnamed_addr #0 {
  %2 = alloca %struct.H5CX_node_t, align 8
  call void @llvm.lifetime.start.p0(i64 480, ptr nonnull %2) #7
  call void @llvm.memset.p0.i64(ptr noundef nonnull align 8 dereferenceable(480) %2, i8 0, i64 480, i1 false)
  %3 = load i8, ptr @H5_libinit_g, align 1, !tbaa !3, !range !7, !noundef !8
  %4 = trunc nuw i8 %3 to i1
  %5 = load i8, ptr @H5_libterm_g, align 1, !range !7
  %6 = trunc nuw i8 %5 to i1
  %7 = select i1 %4, i1 true, i1 %6
  br i1 %7, label %15, label %8, !prof !9

8:                                                ; preds = %1
  %9 = tail call i32 @H5_init_library() #7
  %10 = icmp slt i32 %9, 0
  br i1 %10, label %11, label %._crit_edge, !prof !10

._crit_edge:                                      ; preds = %8
  %.pre = load i8, ptr @H5_libterm_g, align 1, !range !7
  br label %15

11:                                               ; preds = %8
  %12 = load i64, ptr @H5E_FUNC_g, align 8, !tbaa !11
  %13 = load i64, ptr @H5E_CANTINIT_g, align 8, !tbaa !11
  %14 = tail call i32 (ptr, ptr, i32, i64, i64, ptr, ...) @H5E_printf_stack(ptr noundef nonnull @.str, ptr noundef nonnull @__func__.H5Eset_current_stack, i32 noundef 365, i64 noundef %12, i64 noundef %13, ptr noundef nonnull @.str.1) #7
  br label %.thread24

15:                                               ; preds = %._crit_edge, %1
  %16 = phi i8 [ %.pre, %._crit_edge ], [ %5, %1 ]
  %17 = load i8, ptr @H5E_init_g, align 1, !tbaa !3, !range !7, !noundef !8
  %18 = trunc nuw i8 %17 to i1
  %19 = trunc nuw i8 %16 to i1
  %20 = select i1 %18, i1 true, i1 %19
  br i1 %20, label %28, label %21, !prof !9

21:                                               ; preds = %15
  store i8 1, ptr @H5E_init_g, align 1, !tbaa !3
  %22 = tail call i32 @H5E__init_package() #7
  %23 = icmp slt i32 %22, 0
  br i1 %23, label %24, label %28, !prof !13

24:                                               ; preds = %21
  store i8 0, ptr @H5E_init_g, align 1, !tbaa !3
  %25 = load i64, ptr @H5E_FUNC_g, align 8, !tbaa !11
  %26 = load i64, ptr @H5E_CANTINIT_g, align 8, !tbaa !11
  %27 = tail call i32 (ptr, ptr, i32, i64, i64, ptr, ...) @H5E_printf_stack(ptr noundef nonnull @.str, ptr noundef nonnull @__func__.H5Eset_current_stack, i32 noundef 365, i64 noundef %25, i64 noundef %26, ptr noundef nonnull @.str.2) #7
  br label %.thread24

28:                                               ; preds = %15, %21
  %29 = call i32 @H5CX_push(ptr noundef nonnull %2) #7
  %30 = icmp slt i32 %29, 0
  br i1 %30, label %31, label %35, !prof !10

31:                                               ; preds = %28
  %32 = load i64, ptr @H5E_FUNC_g, align 8, !tbaa !11
  %33 = load i64, ptr @H5E_CANTSET_g, align 8, !tbaa !11
  %34 = call i32 (ptr, ptr, i32, i64, i64, ptr, ...) @H5E_printf_stack(ptr noundef nonnull @.str, ptr noundef nonnull @__func__.H5Eset_current_stack, i32 noundef 365, i64 noundef %32, i64 noundef %33, ptr noundef nonnull @.str.3) #7
  br label %.thread24

35:                                               ; preds = %28
  %36 = call i32 @H5E_clear_stack() #7
  %.not = icmp eq i64 %0, 0
  br i1 %.not, label %59, label %37

37:                                               ; preds = %35
  %38 = call ptr @H5I_object_verify(i64 noundef %0, i32 noundef 14) #7
  %39 = icmp eq ptr %38, null
  br i1 %39, label %40, label %44, !prof !14

40:                                               ; preds = %37
  %41 = load i64, ptr @H5E_ARGS_g, align 8, !tbaa !11
  %42 = load i64, ptr @H5E_BADTYPE_g, align 8, !tbaa !11
  %43 = call i32 (ptr, ptr, i32, i64, i64, ptr, ...) @H5E_printf_stack(ptr noundef nonnull @.str, ptr noundef nonnull @__func__.H5Eset_current_stack, i32 noundef 369, i64 noundef %41, i64 noundef %42, ptr noundef nonnull @.str.21) #7
  br label %.thread30

44:                                               ; preds = %37
  %45 = call i32 @H5E__set_current_stack(ptr noundef nonnull %38) #7
  %46 = icmp slt i32 %45, 0
  br i1 %46, label %47, label %51, !prof !14

47:                                               ; preds = %44
  %48 = load i64, ptr @H5E_ERROR_g, align 8, !tbaa !11
  %49 = load i64, ptr @H5E_CANTSET_g, align 8, !tbaa !11
  %50 = call i32 (ptr, ptr, i32, i64, i64, ptr, ...) @H5E_printf_stack(ptr noundef nonnull @.str, ptr noundef nonnull @__func__.H5Eset_current_stack, i32 noundef 373, i64 noundef %48, i64 noundef %49, ptr noundef nonnull @.str.22) #7
  br label %.thread30

51:                                               ; preds = %44
  %52 = call i32 @H5I_dec_app_ref(i64 noundef %0) #7
  %53 = icmp slt i32 %52, 0
  br i1 %53, label %54, label %59, !prof !14

54:                                               ; preds = %51
  %55 = load i64, ptr @H5E_ERROR_g, align 8, !tbaa !11
  %56 = load i64, ptr @H5E_CANTDEC_g, align 8, !tbaa !11
  %57 = call i32 (ptr, ptr, i32, i64, i64, ptr, ...) @H5E_printf_stack(ptr noundef nonnull @.str, ptr noundef nonnull @__func__.H5Eset_current_stack, i32 noundef 380, i64 noundef %55, i64 noundef %56, ptr noundef nonnull @.str.23) #7
  br label %.thread30

.thread30:                                        ; preds = %54, %47, %40
  %58 = call i32 @H5CX_pop(i1 noundef zeroext true) #7
  br label %.thread24

59:                                               ; preds = %35, %51
  %60 = call i32 @H5CX_pop(i1 noundef zeroext true) #7
  br label %62

.thread24:                                        ; preds = %31, %24, %11, %.thread30
  %61 = call i32 @H5E_dump_api_stack() #7
  br label %62

62:                                               ; preds = %59, %.thread24
  %.0131927 = phi i32 [ -1, %.thread24 ], [ 0, %59 ]
  call void @llvm.lifetime.end.p0(i64 480, ptr nonnull %2) #7
  ret i32 %.0131927
}